target datalayout = "e-m:e-p270:32:32-p271:32:32-p272:64:64-i64:64-i128:128-f80:128-n8:16:32:64-S128"
target triple = "x86_64-unknown-linux-gnu"

%"class.icu_75::MeasureUnit" = type <{ %"class.icu_75::UObject", ptr, i16, i8, [5 x i8] }>
%"class.icu_75::UObject" = type { ptr }

@_ZTVN6icu_757UObjectE = external unnamed_addr constant { [5 x ptr] }, align 8

; Function Attrs: mustprogress nounwind uwtable
define linkonce_odr void @_ZN6icu_757UObjectC2Ev(ptr noundef nonnull align 8 dereferenceable(8) %this) unnamed_addr #0 comdat align 2 {
entry:
  %this.addr = alloca ptr, align 8
  store ptr %this, ptr %this.addr, align 8
  %this1 = load ptr, ptr %this.addr, align 8
  store ptr getelementptr inbounds ({ [5 x ptr] }, ptr @_ZTVN6icu_757UObjectE, i32 0, i32 0, i32 2), ptr %this1, align 8
  ret void
}

; Function Attrs: mustprogress nounwind uwtable
define void @_ZN6icu_7511MeasureUnitC2EOS0_(ptr noundef nonnull align 8 dereferenceable(19) %this, ptr noundef nonnull align 8 dereferenceable(19) %other) unnamed_addr #0 align 2 {
entry:
  %this.addr = alloca ptr, align 8
  %other.addr = alloca ptr, align 8
  store ptr %this, ptr %this.addr, align 8
  store ptr %other, ptr %other.addr, align 8
  %this1 = load ptr, ptr %this.addr, align 8
  call void @_ZN6icu_757UObjectC2Ev(ptr noundef nonnull align 8 dereferenceable(8) %this1) #8
  store ptr getelementptr inbounds ({ [7 x ptr] }, ptr @_ZTVN6icu_7511MeasureUnitE, i32 0, i32 0, i32 2), ptr %this1, align 8
  %fImpl = getelementptr inbounds %"class.icu_75::MeasureUnit", ptr %this1, i32 0, i32 1
  %0 = load ptr, ptr %other.addr, align 8
  %fImpl2 = getelementptr inbounds %"class.icu_75::MeasureUnit", ptr %0, i32 0, i32 1
  %1 = load ptr, ptr %fImpl2, align 8
  store ptr %1, ptr %fImpl, align 8
  %fSubTypeId = getelementptr inbounds %"class.icu_75::MeasureUnit", ptr %this1, i32 0, i32 2
  %2 = load ptr, ptr %other.addr, align 8
  %fSubTypeId3 = getelementptr inbounds %"class.icu_75::MeasureUnit", ptr %2, i32 0, i32 2
  %3 = load i16, ptr %fSubTypeId3, align 8
  store i16 %3, ptr %fSubTypeId, align 8
  %fTypeId = getelementptr inbounds %"class.icu_75::MeasureUnit", ptr %this1, i32 0, i32 3
  %4 = load ptr, ptr %other.addr, align 8
  %fTypeId4 = getelementptr inbounds %"class.icu_75::MeasureUnit", ptr %4, i32 0, i32 3
  %5 = load i8, ptr %fTypeId4, align 2
  store i8 %5, ptr %fTypeId, align 2
  %6 = load ptr, ptr %other.addr, align 8
  %fImpl5 = getelementptr inbounds %"class.icu_75::MeasureUnit", ptr %6, i32 0, i32 1
  store ptr null, ptr %fImpl5, align 8
  ret void
}