; Function Attrs: mustprogress nofree norecurse nosync nounwind willreturn memory(argmem: readwrite) uwtable
define void @_ZN6icu_7511MeasureUnitC2EOS0_(ptr nocapture noundef nonnull writeonly align 8 dereferenceable(19) %this, ptr nocapture noundef nonnull align 8 dereferenceable(19) %other) unnamed_addr #9 align 2 {
entry:
  store ptr getelementptr inbounds ({ [7 x ptr] }, ptr @_ZTVN6icu_7511MeasureUnitE, i64 0, i32 0, i64 2), ptr %this, align 8
  %fImpl = getelementptr inbounds i8, ptr %this, i64 8
  %fImpl2 = getelementptr inbounds i8, ptr %other, i64 8
  %0 = load ptr, ptr %fImpl2, align 8
  store ptr %0, ptr %fImpl, align 8
  %fSubTypeId = getelementptr inbounds i8, ptr %this, i64 16
  %fSubTypeId3 = getelementptr inbounds i8, ptr %other, i64 16
  %1 = load i16, ptr %fSubTypeId3, align 8
  store i16 %1, ptr %fSubTypeId, align 8
  %fTypeId = getelementptr inbounds i8, ptr %this, i64 18
  %fTypeId4 = getelementptr inbounds i8, ptr %other, i64 18
  %2 = load i8, ptr %fTypeId4, align 2
  store i8 %2, ptr %fTypeId, align 2
  store ptr null, ptr %fImpl2, align 8
  ret void
}